target datalayout = "e-m:e-p270:32:32-p271:32:32-p272:64:64-i64:64-i128:128-f80:128-n8:16:32:64-S128"
target triple = "x86_64-pc-linux-gnu"

@ff_h264_luma_dc_dequant_idct_12_c.x_offset = internal constant [4 x i8] c"\00 \80\A0", align 1

; Function Attrs: nounwind uwtable
define void @ff_h264_luma_dc_dequant_idct_12_c(ptr noundef %0, ptr noundef %1, i32 noundef %2) #0 {
  %4 = alloca ptr, align 8
  %5 = alloca ptr, align 8
  %6 = alloca i32, align 4
  %7 = alloca i32, align 4
  %8 = alloca [16 x i32], align 16
  %9 = alloca ptr, align 8
  %10 = alloca ptr, align 8
  %11 = alloca i32, align 4
  %12 = alloca i32, align 4
  %13 = alloca i32, align 4
  %14 = alloca i32, align 4
  %15 = alloca i32, align 4
  %16 = alloca i32, align 4
  %17 = alloca i32, align 4
  %18 = alloca i32, align 4
  %19 = alloca i32, align 4
  store ptr %0, ptr %4, align 8, !tbaa !9
  store ptr %1, ptr %5, align 8, !tbaa !9
  store i32 %2, ptr %6, align 4, !tbaa !11
  call void @llvm.lifetime.start.p0(i64 4, ptr %7) #4
  call void @llvm.lifetime.start.p0(i64 64, ptr %8) #4
  call void @llvm.lifetime.start.p0(i64 8, ptr %9) #4
  %20 = load ptr, ptr %5, align 8, !tbaa !9
  store ptr %20, ptr %9, align 8, !tbaa !25
  call void @llvm.lifetime.start.p0(i64 8, ptr %10) #4
  %21 = load ptr, ptr %4, align 8, !tbaa !9
  store ptr %21, ptr %10, align 8, !tbaa !25
  store i32 0, ptr %7, align 4, !tbaa !11
  br label %22

22:                                               ; preds = %118, %3
  %23 = load i32, ptr %7, align 4, !tbaa !11
  %24 = icmp slt i32 %23, 4
  br i1 %24, label %25, label %121

25:                                               ; preds = %22
  call void @llvm.lifetime.start.p0(i64 4, ptr %11) #4
  %26 = load ptr, ptr %9, align 8, !tbaa !25
  %27 = load i32, ptr %7, align 4, !tbaa !11
  %28 = mul nsw i32 4, %27
  %29 = add nsw i32 %28, 0
  %30 = sext i32 %29 to i64
  %31 = getelementptr inbounds i32, ptr %26, i64 %30
  %32 = load i32, ptr %31, align 4, !tbaa !11
  %33 = load ptr, ptr %9, align 8, !tbaa !25
  %34 = load i32, ptr %7, align 4, !tbaa !11
  %35 = mul nsw i32 4, %34
  %36 = add nsw i32 %35, 1
  %37 = sext i32 %36 to i64
  %38 = getelementptr inbounds i32, ptr %33, i64 %37
  %39 = load i32, ptr %38, align 4, !tbaa !11
  %40 = add nsw i32 %32, %39
  store i32 %40, ptr %11, align 4, !tbaa !11
  call void @llvm.lifetime.start.p0(i64 4, ptr %12) #4
  %41 = load ptr, ptr %9, align 8, !tbaa !25
  %42 = load i32, ptr %7, align 4, !tbaa !11
  %43 = mul nsw i32 4, %42
  %44 = add nsw i32 %43, 0
  %45 = sext i32 %44 to i64
  %46 = getelementptr inbounds i32, ptr %41, i64 %45
  %47 = load i32, ptr %46, align 4, !tbaa !11
  %48 = load ptr, ptr %9, align 8, !tbaa !25
  %49 = load i32, ptr %7, align 4, !tbaa !11
  %50 = mul nsw i32 4, %49
  %51 = add nsw i32 %50, 1
  %52 = sext i32 %51 to i64
  %53 = getelementptr inbounds i32, ptr %48, i64 %52
  %54 = load i32, ptr %53, align 4, !tbaa !11
  %55 = sub nsw i32 %47, %54
  store i32 %55, ptr %12, align 4, !tbaa !11
  call void @llvm.lifetime.start.p0(i64 4, ptr %13) #4
  %56 = load ptr, ptr %9, align 8, !tbaa !25
  %57 = load i32, ptr %7, align 4, !tbaa !11
  %58 = mul nsw i32 4, %57
  %59 = add nsw i32 %58, 2
  %60 = sext i32 %59 to i64
  %61 = getelementptr inbounds i32, ptr %56, i64 %60
  %62 = load i32, ptr %61, align 4, !tbaa !11
  %63 = load ptr, ptr %9, align 8, !tbaa !25
  %64 = load i32, ptr %7, align 4, !tbaa !11
  %65 = mul nsw i32 4, %64
  %66 = add nsw i32 %65, 3
  %67 = sext i32 %66 to i64
  %68 = getelementptr inbounds i32, ptr %63, i64 %67
  %69 = load i32, ptr %68, align 4, !tbaa !11
  %70 = sub nsw i32 %62, %69
  store i32 %70, ptr %13, align 4, !tbaa !11
  call void @llvm.lifetime.start.p0(i64 4, ptr %14) #4
  %71 = load ptr, ptr %9, align 8, !tbaa !25
  %72 = load i32, ptr %7, align 4, !tbaa !11
  %73 = mul nsw i32 4, %72
  %74 = add nsw i32 %73, 2
  %75 = sext i32 %74 to i64
  %76 = getelementptr inbounds i32, ptr %71, i64 %75
  %77 = load i32, ptr %76, align 4, !tbaa !11
  %78 = load ptr, ptr %9, align 8, !tbaa !25
  %79 = load i32, ptr %7, align 4, !tbaa !11
  %80 = mul nsw i32 4, %79
  %81 = add nsw i32 %80, 3
  %82 = sext i32 %81 to i64
  %83 = getelementptr inbounds i32, ptr %78, i64 %82
  %84 = load i32, ptr %83, align 4, !tbaa !11
  %85 = add nsw i32 %77, %84
  store i32 %85, ptr %14, align 4, !tbaa !11
  %86 = load i32, ptr %11, align 4, !tbaa !11
  %87 = load i32, ptr %14, align 4, !tbaa !11
  %88 = add nsw i32 %86, %87
  %89 = load i32, ptr %7, align 4, !tbaa !11
  %90 = mul nsw i32 4, %89
  %91 = add nsw i32 %90, 0
  %92 = sext i32 %91 to i64
  %93 = getelementptr inbounds [16 x i32], ptr %8, i64 0, i64 %92
  store i32 %88, ptr %93, align 4, !tbaa !11
  %94 = load i32, ptr %11, align 4, !tbaa !11
  %95 = load i32, ptr %14, align 4, !tbaa !11
  %96 = sub nsw i32 %94, %95
  %97 = load i32, ptr %7, align 4, !tbaa !11
  %98 = mul nsw i32 4, %97
  %99 = add nsw i32 %98, 1
  %100 = sext i32 %99 to i64
  %101 = getelementptr inbounds [16 x i32], ptr %8, i64 0, i64 %100
  store i32 %96, ptr %101, align 4, !tbaa !11
  %102 = load i32, ptr %12, align 4, !tbaa !11
  %103 = load i32, ptr %13, align 4, !tbaa !11
  %104 = sub nsw i32 %102, %103
  %105 = load i32, ptr %7, align 4, !tbaa !11
  %106 = mul nsw i32 4, %105
  %107 = add nsw i32 %106, 2
  %108 = sext i32 %107 to i64
  %109 = getelementptr inbounds [16 x i32], ptr %8, i64 0, i64 %108
  store i32 %104, ptr %109, align 4, !tbaa !11
  %110 = load i32, ptr %12, align 4, !tbaa !11
  %111 = load i32, ptr %13, align 4, !tbaa !11
  %112 = add nsw i32 %110, %111
  %113 = load i32, ptr %7, align 4, !tbaa !11
  %114 = mul nsw i32 4, %113
  %115 = add nsw i32 %114, 3
  %116 = sext i32 %115 to i64
  %117 = getelementptr inbounds [16 x i32], ptr %8, i64 0, i64 %116
  store i32 %112, ptr %117, align 4, !tbaa !11
  call void @llvm.lifetime.end.p0(i64 4, ptr %14) #4
  call void @llvm.lifetime.end.p0(i64 4, ptr %13) #4
  call void @llvm.lifetime.end.p0(i64 4, ptr %12) #4
  call void @llvm.lifetime.end.p0(i64 4, ptr %11) #4
  br label %118

118:                                              ; preds = %25
  %119 = load i32, ptr %7, align 4, !tbaa !11
  %120 = add nsw i32 %119, 1
  store i32 %120, ptr %7, align 4, !tbaa !11
  br label %22, !llvm.loop !102

121:                                              ; preds = %22
  store i32 0, ptr %7, align 4, !tbaa !11
  br label %122

122:                                              ; preds = %223, %121
  %123 = load i32, ptr %7, align 4, !tbaa !11
  %124 = icmp slt i32 %123, 4
  br i1 %124, label %125, label %226

125:                                              ; preds = %122
  call void @llvm.lifetime.start.p0(i64 4, ptr %15) #4
  %126 = load i32, ptr %7, align 4, !tbaa !11
  %127 = sext i32 %126 to i64
  %128 = getelementptr inbounds [4 x i8], ptr @ff_h264_luma_dc_dequant_idct_12_c.x_offset, i64 0, i64 %127
  %129 = load i8, ptr %128, align 1, !tbaa !17
  %130 = zext i8 %129 to i32
  store i32 %130, ptr %15, align 4, !tbaa !11
  call void @llvm.lifetime.start.p0(i64 4, ptr %16) #4
  %131 = load i32, ptr %7, align 4, !tbaa !11
  %132 = add nsw i32 0, %131
  %133 = sext i32 %132 to i64
  %134 = getelementptr inbounds [16 x i32], ptr %8, i64 0, i64 %133
  %135 = load i32, ptr %134, align 4, !tbaa !11
  %136 = load i32, ptr %7, align 4, !tbaa !11
  %137 = add nsw i32 8, %136
  %138 = sext i32 %137 to i64
  %139 = getelementptr inbounds [16 x i32], ptr %8, i64 0, i64 %138
  %140 = load i32, ptr %139, align 4, !tbaa !11
  %141 = add nsw i32 %135, %140
  store i32 %141, ptr %16, align 4, !tbaa !11
  call void @llvm.lifetime.start.p0(i64 4, ptr %17) #4
  %142 = load i32, ptr %7, align 4, !tbaa !11
  %143 = add nsw i32 0, %142
  %144 = sext i32 %143 to i64
  %145 = getelementptr inbounds [16 x i32], ptr %8, i64 0, i64 %144
  %146 = load i32, ptr %145, align 4, !tbaa !11
  %147 = load i32, ptr %7, align 4, !tbaa !11
  %148 = add nsw i32 8, %147
  %149 = sext i32 %148 to i64
  %150 = getelementptr inbounds [16 x i32], ptr %8, i64 0, i64 %149
  %151 = load i32, ptr %150, align 4, !tbaa !11
  %152 = sub nsw i32 %146, %151
  store i32 %152, ptr %17, align 4, !tbaa !11
  call void @llvm.lifetime.start.p0(i64 4, ptr %18) #4
  %153 = load i32, ptr %7, align 4, !tbaa !11
  %154 = add nsw i32 4, %153
  %155 = sext i32 %154 to i64
  %156 = getelementptr inbounds [16 x i32], ptr %8, i64 0, i64 %155
  %157 = load i32, ptr %156, align 4, !tbaa !11
  %158 = load i32, ptr %7, align 4, !tbaa !11
  %159 = add nsw i32 12, %158
  %160 = sext i32 %159 to i64
  %161 = getelementptr inbounds [16 x i32], ptr %8, i64 0, i64 %160
  %162 = load i32, ptr %161, align 4, !tbaa !11
  %163 = sub nsw i32 %157, %162
  store i32 %163, ptr %18, align 4, !tbaa !11
  call void @llvm.lifetime.start.p0(i64 4, ptr %19) #4
  %164 = load i32, ptr %7, align 4, !tbaa !11
  %165 = add nsw i32 4, %164
  %166 = sext i32 %165 to i64
  %167 = getelementptr inbounds [16 x i32], ptr %8, i64 0, i64 %166
  %168 = load i32, ptr %167, align 4, !tbaa !11
  %169 = load i32, ptr %7, align 4, !tbaa !11
  %170 = add nsw i32 12, %169
  %171 = sext i32 %170 to i64
  %172 = getelementptr inbounds [16 x i32], ptr %8, i64 0, i64 %171
  %173 = load i32, ptr %172, align 4, !tbaa !11
  %174 = add nsw i32 %168, %173
  store i32 %174, ptr %19, align 4, !tbaa !11
  %175 = load i32, ptr %16, align 4, !tbaa !11
  %176 = load i32, ptr %19, align 4, !tbaa !11
  %177 = add i32 %175, %176
  %178 = load i32, ptr %6, align 4, !tbaa !11
  %179 = mul i32 %177, %178
  %180 = add i32 %179, 128
  %181 = ashr i32 %180, 8
  %182 = load ptr, ptr %10, align 8, !tbaa !25
  %183 = load i32, ptr %15, align 4, !tbaa !11
  %184 = add nsw i32 0, %183
  %185 = sext i32 %184 to i64
  %186 = getelementptr inbounds i32, ptr %182, i64 %185
  store i32 %181, ptr %186, align 4, !tbaa !11
  %187 = load i32, ptr %17, align 4, !tbaa !11
  %188 = load i32, ptr %18, align 4, !tbaa !11
  %189 = add i32 %187, %188
  %190 = load i32, ptr %6, align 4, !tbaa !11
  %191 = mul i32 %189, %190
  %192 = add i32 %191, 128
  %193 = ashr i32 %192, 8
  %194 = load ptr, ptr %10, align 8, !tbaa !25
  %195 = load i32, ptr %15, align 4, !tbaa !11
  %196 = add nsw i32 16, %195
  %197 = sext i32 %196 to i64
  %198 = getelementptr inbounds i32, ptr %194, i64 %197
  store i32 %193, ptr %198, align 4, !tbaa !11
  %199 = load i32, ptr %17, align 4, !tbaa !11
  %200 = load i32, ptr %18, align 4, !tbaa !11
  %201 = sub i32 %199, %200
  %202 = load i32, ptr %6, align 4, !tbaa !11
  %203 = mul i32 %201, %202
  %204 = add i32 %203, 128
  %205 = ashr i32 %204, 8
  %206 = load ptr, ptr %10, align 8, !tbaa !25
  %207 = load i32, ptr %15, align 4, !tbaa !11
  %208 = add nsw i32 64, %207
  %209 = sext i32 %208 to i64
  %210 = getelementptr inbounds i32, ptr %206, i64 %209
  store i32 %205, ptr %210, align 4, !tbaa !11
  %211 = load i32, ptr %16, align 4, !tbaa !11
  %212 = load i32, ptr %19, align 4, !tbaa !11
  %213 = sub i32 %211, %212
  %214 = load i32, ptr %6, align 4, !tbaa !11
  %215 = mul i32 %213, %214
  %216 = add i32 %215, 128
  %217 = ashr i32 %216, 8
  %218 = load ptr, ptr %10, align 8, !tbaa !25
  %219 = load i32, ptr %15, align 4, !tbaa !11
  %220 = add nsw i32 80, %219
  %221 = sext i32 %220 to i64
  %222 = getelementptr inbounds i32, ptr %218, i64 %221
  store i32 %217, ptr %222, align 4, !tbaa !11
  call void @llvm.lifetime.end.p0(i64 4, ptr %19) #4
  call void @llvm.lifetime.end.p0(i64 4, ptr %18) #4
  call void @llvm.lifetime.end.p0(i64 4, ptr %17) #4
  call void @llvm.lifetime.end.p0(i64 4, ptr %16) #4
  call void @llvm.lifetime.end.p0(i64 4, ptr %15) #4
  br label %223

223:                                              ; preds = %125
  %224 = load i32, ptr %7, align 4, !tbaa !11
  %225 = add nsw i32 %224, 1
  store i32 %225, ptr %7, align 4, !tbaa !11
  br label %122, !llvm.loop !103

226:                                              ; preds = %122
  call void @llvm.lifetime.end.p0(i64 8, ptr %10) #4
  call void @llvm.lifetime.end.p0(i64 8, ptr %9) #4
  call void @llvm.lifetime.end.p0(i64 64, ptr %8) #4
  call void @llvm.lifetime.end.p0(i64 4, ptr %7) #4
  ret void
}